(dp0
S'header'
p1
(dp2
S'date'
p3
cdatetime
datetime
p4
(S'\x07\xda\x02\x19\x0e\x14\x0e\x00\x00\x00'
p5
tp6
Rp7
sS'unknown_headers'
p8
(lp9
(lp10
I3
aS'#C specES1  User = e12608'
p11
aasS'motornames'
p12
(lp13
S'dummy'
p14
aS'idgap'
p15
aS'bm1trx'
p16
aS'bm1try'
p17
aS'bm2trx'
p18
aS'bm2try'
p19
aS'di2trx'
p20
aS'di2try'
p21
aS'bm3trx'
p22
aS'bm3try'
p23
aS'sl1trxo'
p24
aS'sl1trxi'
p25
aS'sl1tryt'
p26
aS'sl1tryb'
p27
aS'sl1ch'
p28
aS'sl1cv'
p29
aS'sl1wh'
p30
aS'sl1wv'
p31
aS'fi1try'
p32
aS'fi2try'
p33
aS'fi3try'
p34
aS'motry'
p35
aS'motrz1'
p36
aS'motrz1e'
p37
aS'mopush1'
p38
aS'moth1'
p39
aS'moth1e'
p40
aS'moroll1'
p41
aS'motrx2'
p42
aS'motry2'
p43
aS'mopush2'
p44
aS'moth2'
p45
aS'moth2e'
p46
aS'mokev'
p47
aS'moyaw2'
p48
aS'moroll2'
p49
aS'mobdai'
p50
aS'mobdbo'
p51
aS'mobdco'
p52
aS'mobddi'
p53
aS'mobd'
p54
aS'bm4trx'
p55
aS'bm4try'
p56
aS'mitrx'
p57
aS'mitry1'
p58
aS'mitry2'
p59
aS'mitry3'
p60
aS'mitry'
p61
aS'mith'
p62
aS'miroll'
p63
aS'mibd1'
p64
aS'mibd2'
p65
aS'mibd'
p66
aS'bm5trx'
p67
aS'bm5try'
p68
aS'sl2trxo'
p69
aS'sl2trxi'
p70
aS'sl2tryt'
p71
aS'sl2tryb'
p72
aS'sl2ch'
p73
aS'sl2cv'
p74
aS'sl2wh'
p75
aS'sl2wv'
p76
aS'sttrx'
p77
aS'sttry'
p78
aS'stpush'
p79
aS'stth'
p80
aS'ebtrx'
p81
aS'ebtry'
p82
aS'ebtrz'
p83
aS'sl3wv'
p84
aS'sl3cv'
p85
aS'sl3wh'
p86
aS'sl3ch'
p87
aS'sl4wv'
p88
aS'sl4cv'
p89
aS'sl4wh'
p90
aS'sl4ch'
p91
aS'ebfi1'
p92
aS'ebfi2'
p93
aS'ebfi3'
p94
aS'ebfi4'
p95
aS'attrx'
p96
aS'attry'
p97
aS'attrz'
p98
aS'atpush'
p99
aS'atth'
p100
aS'bs1x'
p101
aS'bs1y'
p102
aS'bs2x'
p103
aS'bs2y'
p104
aS'dttrx'
p105
aS'dttry'
p106
aS'dttrz'
p107
aS'dtpush'
p108
aS'dtth'
p109
aS'dettrx'
p110
aS'hx'
p111
aS'hy'
p112
aS'hz'
p113
aS'hrox'
p114
aS'hroy'
p115
aS'hroz'
p116
aS'eyex'
p117
aS'eyey'
p118
aS'eyefoc'
p119
aS'samx'
p120
aS'samy'
p121
aS'scatx'
p122
aS'scaty'
p123
asS'epoch'
p124
I1267104014
sS'filename'
p125
S'/sls/X12SA/Data10/e12608/spec/dat-files/specES1_started_2010_02_25_1420.dat'
p126
ssS'scans'
p127
(lp128
(dp129
S'point_comments'
p130
(lp131
sS'motorpositions'
p132
(lp133
F0.0
aF5.1909999999999998
aF0.0
aF0.49999999000000001
aF0.0
aF0.29999998999999999
aF0.0
aF0.0
aF-6238.6436000000003
aF37.613748999999999
aF0.30000000999999998
aF-0.70000003
aF-0.01
aF-0.81000004000000003
aF-0.20000000000000001
aF-0.40999999999999998
aF1.0
aF0.80000000000000004
aF0.0
aF0.0
aF0.0
aF-3.0654612e-06
aF-150.72701000000001
aF-150.72989999999999
aF-21.188548999999998
aF-9.1748049999999992
aF-9.1739499999999996
aF-1.1865000000000001
aF0.34999998999999998
aF0.14000000000000001
aF-31.816299000000001
aF-9.1760000000000002
aF-9.1732999999999993
aF12.4
aF0.0
aF-1.0134540000000001
aF0.30012499999999998
aF0.30012499999999998
aF0.30012499999999998
aF0.30012499999999998
aF0.29999999999999999
aF1.9550000000000001
aF-0.20124839
aF0.0
aF0.34734999
aF0.34734999
aF2.5627
aF1.2374449999999999
aF-0.22666
aF0.0
aF0.64000997999999998
aF0.63998997999999996
aF0.64000000000000001
aF0.0
aF39.999999000000003
aF1.1745000999999999
aF0.074500003999999995
aF0.11800001
aF-0.78200004000000001
aF0.62450000000000006
aF-0.33200000000000002
aF1.1000000000000001
aF0.90000000000000002
aF1.0000008
aF-35.798999999999999
aF11.920251
aF-0.45850000000000002
aF-5.2524999000000001
aF11.3696
aF317.0
aF1.2000192999999999
aF-0.1200905
aF1.2000192999999999
aF-0.81546920000000001
aF1.2000192999999999
aF-0.42086380000000001
aF1.2000192999999999
aF2.0071004000000001
aF120.0
aF0.0
aF0.0
aF0.0
aF1.1754176000000001
aF32.764899
aF1239.6151
aF15.184313
aF-1.1835
aF0.0
aF-151.32249999999999
aF0.030079999999999999
aF0.0
aF-0.028333356000000001
aF74.382099999999994
aF7220.7797
aF7.1201252999999998
aF-0.45850000000000002
aF-408.03125999999997
aF-13.234
aF1.8855
aF-2.0
aF0.0
aF0.0
aF0.0
aF-156.82875000000001
aF138.1712
aF-0.50993215999999997
aF95.000004000000004
aF0.0
aF55.999997999999998
aF-0.37374998999999998
asS'ncols'
p134
I11
sS'number'
p135
I1
sS'time_units'
p136
S'(Seconds)'
p137
sS'points'
p138
(lp139
(lp140
F-9.1809949999999994
aF949.0
aF400.06725999999998
aF170901050.0
aF870.0
aF693.0
aF175.0
aF1.0
aF1.0
aF0.0
aF0.20000000000000001
aa(lp141
F-9.1807549999999996
aF949.0
aF400.06344999999999
aF225833520.0
aF930.0
aF740.0
aF188.0
aF1.0
aF1.0
aF0.0
aF0.20000000000000001
aa(lp142
F-9.1805000000000003
aF950.0
aF400.05583000000001
aF253299760.0
aF1046.0
aF832.0
aF212.0
aF1.0
aF1.0
aF0.0
aF0.20000000000000001
aa(lp143
F-9.1802449999999993
aF950.0
aF400.0444
aF305180440.0
aF1129.0
aF896.0
aF231.0
aF1.0
aF1.0
aF0.0
aF0.20000000000000001
aa(lp144
F-9.1799949999999999
aF951.0
aF400.04059999999998
aF357061110.0
aF1164.0
aF923.0
aF239.0
aF1.0
aF1.0
aF0.0
aF0.20000000000000001
aa(lp145
F-9.1797550000000001
aF951.0
aF400.02917000000002
aF405889980.0
aF1253.0
aF992.0
aF259.0
aF1.0
aF1.0
aF1.0
aF0.20000000000000001
aa(lp146
F-9.1795000000000009
aF952.0
aF400.02535999999998
aF463874270.0
aF1663.0
aF1316.0
aF345.0
aF1.0
aF1.0
aF2.0
aF0.20000000000000001
aa(lp147
F-9.1792449999999999
aF952.0
aF400.01393000000002
aF540169380.0
aF1633.0
aF1226.0
aF322.0
aF84.0
aF1.0
aF0.0
aF0.20000000000000001
aa(lp148
F-9.1790050000000001
aF953.0
aF400.07488000000001
aF616464480.0
aF1800.0
aF1331.0
aF351.0
aF117.0
aF1.0
aF1.0
aF0.20000000000000001
aa(lp149
F-9.1787500000000009
aF953.0
aF400.32249999999999
aF704966810.0
aF2016.0
aF1467.0
aF388.0
aF160.0
aF1.0
aF0.0
aF0.20000000000000001
aa(lp150
F-9.1784999999999997
aF954.0
aF400.45202
aF805676360.0
aF2236.0
aF1602.0
aF425.0
aF208.0
aF1.0
aF0.0
aF0.20000000000000001
aa(lp151
F-9.1782450000000004
aF954.0
aF400.69963999999999
aF918593120.0
aF2502.0
aF1776.0
aF473.0
aF252.0
aF1.0
aF0.0
aF0.20000000000000001
aa(lp152
F-9.1780050000000006
aF955.0
aF400.94726000000003
aF1043717100.0
aF2785.0
aF1957.0
aF522.0
aF305.0
aF1.0
aF0.0
aF0.20000000000000001
aa(lp153
F-9.1777499999999996
aF955.0
aF401.06916999999999
aF1190203700.0
aF3138.0
aF2174.0
aF581.0
aF382.0
aF1.0
aF0.0
aF0.20000000000000001
aa(lp154
F-9.1774950000000004
aF956.0
aF401.30536000000001
aF1364156600.0
aF3576.0
aF2453.0
aF656.0
aF466.0
aF1.0
aF0.0
aF0.20000000000000001
aa(lp155
F-9.1772449999999992
aF956.0
aF401.54154999999997
aF1623559900.0
aF4058.0
aF2752.0
aF736.0
aF569.0
aF1.0
aF0.0
aF0.20000000000000001
aa(lp156
F-9.1770049999999994
aF957.0
aF401.67869000000002
aF1864652500.0
aF4662.0
aF3123.0
aF838.0
aF700.0
aF1.0
aF0.0
aF0.20000000000000001
aa(lp157
F-9.1767500000000002
aF957.0
aF401.94155000000001
aF2160677500.0
aF6381.0
aF4235.0
aF1134.0
aF1011.0
aF1.0
aF0.0
aF0.20000000000000001
aa(lp158
F-9.1764949999999992
aF958.0
aF402.06344999999999
aF2551308500.0
aF7698.0
aF5046.0
aF1356.0
aF1295.0
aF1.0
aF0.0
aF0.20000000000000001
aa(lp159
F-9.1762549999999994
aF958.0
aF402.10154999999997
aF3042649000.0
aF7606.0
aF4907.0
aF1316.0
aF1360.0
aF23.0
aF0.0
aF0.20000000000000001
aa(lp160
F-9.1760000000000002
aF959.0
aF402.09393
aF3686579700.0
aF9419.0
aF5898.0
aF1578.0
aF1737.0
aF206.0
aF2.0
aF0.20000000000000001
aa(lp161
F-9.1757500000000007
aF959.0
aF402.08249999999998
aF4663157100.0
aF11860.0
aF7255.0
aF1930.0
aF2322.0
aF353.0
aF0.0
aF0.20000000000000001
aa(lp162
F-9.1754949999999997
aF960.0
aF402.07488000000001
aF5841153600.0
aF16078.0
aF9647.0
aF2545.0
aF3303.0
aF583.0
aF0.0
aF0.20000000000000001
aa(lp163
F-9.1752549999999999
aF960.0
aF402.07107000000002
aF7739375900.0
aF21400.0
aF12545.0
aF3260.0
aF4682.0
aF913.0
aF0.0
aF0.20000000000000001
aa(lp164
F-9.1750000000000007
aF961.0
aF402.05964
aF10620279000.0
aF33435.0
aF19003.0
aF4768.0
aF7983.0
aF1681.0
aF1.0
aF0.20000000000000001
aa(lp165
F-9.1747449999999997
aF961.0
aF402.05202000000003
aF17093156000.0
aF51569.0
aF28806.0
aF7443.0
aF12362.0
aF2958.0
aF2.0
aF0.20000000000000001
aa(lp166
F-9.1745049999999999
aF962.0
aF402.0444
aF24911879000.0
aF68426.0
aF37541.0
aF9918.0
aF16711.0
aF4256.0
aF1.0
aF0.20000000000000001
aa(lp167
F-9.1742550000000005
aF962.0
aF402.03679
aF34006256000.0
aF85041.0
aF45955.0
aF12271.0
aF21194.0
aF5621.0
aF0.0
aF0.20000000000000001
aa(lp168
F-9.1739999999999995
aF963.0
aF402.02535999999998
aF40823987000.0
aF99146.0
aF52837.0
aF14327.0
aF25104.0
aF6878.0
aF0.0
aF0.20000000000000001
aa(lp169
F-9.1737450000000003
aF964.0
aF402.02154999999999
aF46726177000.0
aF105751.0
aF55779.0
aF15526.0
aF26705.0
aF7741.0
aF0.0
aF0.20000000000000001
aa(lp170
F-9.1735050000000005
aF964.0
aF402.01011999999997
aF48889906000.0
aF97962.0
aF51135.0
aF14550.0
aF24865.0
aF7412.0
aF0.0
aF0.20000000000000001
aa(lp171
F-9.1732499999999995
aF965.0
aF401.99869000000001
aF45328450000.0
aF83469.0
aF43502.0
aF12576.0
aF21041.0
aF6350.0
aF0.0
aF0.20000000000000001
aa(lp172
F-9.1729950000000002
aF965.0
aF401.99106999999998
aF37488365000.0
aF77657.0
aF40342.0
aF11811.0
aF19525.0
aF5979.0
aF0.0
aF0.20000000000000001
aa(lp173
F-9.1727450000000008
aF966.0
aF401.98345
aF30307469000.0
aF48726.0
aF25435.0
aF7610.0
aF11938.0
aF3743.0
aF1.0
aF0.20000000000000001
aa(lp174
F-9.1725049999999992
aF966.0
aF401.97582999999997
aF22558938000.0
aF31833.0
aF16809.0
aF5143.0
aF7573.0
aF2308.0
aF1.0
aF0.20000000000000001
aa(lp175
F-9.17225
aF967.0
aF401.96440000000001
aF13943694000.0
aF21457.0
aF11341.0
aF3384.0
aF5283.0
aF1449.0
aF0.0
aF0.20000000000000001
aa(lp176
F-9.1719950000000008
aF967.0
aF401.95679000000001
aF9884794400.0
aF15819.0
aF8447.0
aF2494.0
aF3900.0
aF978.0
aF3.0
aF0.20000000000000001
aa(lp177
F-9.1717549999999992
aF968.0
aF401.94916999999998
aF7553215800.0
aF14390.0
aF7722.0
aF2252.0
aF3589.0
aF827.0
aF0.0
aF0.20000000000000001
aa(lp178
F-9.1715
aF968.0
aF401.93774000000002
aF5600061000.0
aF11648.0
aF6286.0
aF1815.0
aF2928.0
aF619.0
aF0.0
aF0.20000000000000001
aa(lp179
F-9.1712500000000006
aF969.0
aF401.93392999999998
aF4577706600.0
aF8269.0
aF4471.0
aF1281.0
aF2112.0
aF405.0
aF0.0
aF0.20000000000000001
aa(lp180
F-9.1709949999999996
aF969.0
aF401.92250000000001
aF3842221700.0
aF6918.0
aF3773.0
aF1071.0
aF1771.0
aF303.0
aF0.0
aF0.20000000000000001
aasS'command'
p181
S'ascan  moth2 -9.181 -9.171  40 0.2'
p182
sS'time'
p183
F0.20000000000000001
sg3
g4
(S'\x07\xda\x02\x19\x0e#9\x00\x00\x00'
p184
tp185
Rp186
sg8
(lp187
sS'counters'
p188
(dp189
S'xbpm1'
p190
(lp191
F693.0
aF740.0
aF832.0
aF896.0
aF923.0
aF992.0
aF1316.0
aF1226.0
aF1331.0
aF1467.0
aF1602.0
aF1776.0
aF1957.0
aF2174.0
aF2453.0
aF2752.0
aF3123.0
aF4235.0
aF5046.0
aF4907.0
aF5898.0
aF7255.0
aF9647.0
aF12545.0
aF19003.0
aF28806.0
aF37541.0
aF45955.0
aF52837.0
aF55779.0
aF51135.0
aF43502.0
aF40342.0
aF25435.0
aF16809.0
aF11341.0
aF8447.0
aF7722.0
aF6286.0
aF4471.0
aF3773.0
asS'xbpm2'
p192
(lp193
F175.0
aF188.0
aF212.0
aF231.0
aF239.0
aF259.0
aF345.0
aF322.0
aF351.0
aF388.0
aF425.0
aF473.0
aF522.0
aF581.0
aF656.0
aF736.0
aF838.0
aF1134.0
aF1356.0
aF1316.0
aF1578.0
aF1930.0
aF2545.0
aF3260.0
aF4768.0
aF7443.0
aF9918.0
aF12271.0
aF14327.0
aF15526.0
aF14550.0
aF12576.0
aF11811.0
aF7610.0
aF5143.0
aF3384.0
aF2494.0
aF2252.0
aF1815.0
aF1281.0
aF1071.0
asS'xbpmS'
p194
(lp195
F170901050.0
aF225833520.0
aF253299760.0
aF305180440.0
aF357061110.0
aF405889980.0
aF463874270.0
aF540169380.0
aF616464480.0
aF704966810.0
aF805676360.0
aF918593120.0
aF1043717100.0
aF1190203700.0
aF1364156600.0
aF1623559900.0
aF1864652500.0
aF2160677500.0
aF2551308500.0
aF3042649000.0
aF3686579700.0
aF4663157100.0
aF5841153600.0
aF7739375900.0
aF10620279000.0
aF17093156000.0
aF24911879000.0
aF34006256000.0
aF40823987000.0
aF46726177000.0
aF48889906000.0
aF45328450000.0
aF37488365000.0
aF30307469000.0
aF22558938000.0
aF13943694000.0
aF9884794400.0
aF7553215800.0
aF5600061000.0
aF4577706600.0
aF3842221700.0
asS'curr'
p196
(lp197
F400.06725999999998
aF400.06344999999999
aF400.05583000000001
aF400.0444
aF400.04059999999998
aF400.02917000000002
aF400.02535999999998
aF400.01393000000002
aF400.07488000000001
aF400.32249999999999
aF400.45202
aF400.69963999999999
aF400.94726000000003
aF401.06916999999999
aF401.30536000000001
aF401.54154999999997
aF401.67869000000002
aF401.94155000000001
aF402.06344999999999
aF402.10154999999997
aF402.09393
aF402.08249999999998
aF402.07488000000001
aF402.07107000000002
aF402.05964
aF402.05202000000003
aF402.0444
aF402.03679
aF402.02535999999998
aF402.02154999999999
aF402.01011999999997
aF401.99869000000001
aF401.99106999999998
aF401.98345
aF401.97582999999997
aF401.96440000000001
aF401.95679000000001
aF401.94916999999998
aF401.93774000000002
aF401.93392999999998
aF401.92250000000001
asS'Monitor'
p198
(lp199
F0.0
aF0.0
aF0.0
aF0.0
aF0.0
aF1.0
aF2.0
aF0.0
aF1.0
aF0.0
aF0.0
aF0.0
aF0.0
aF0.0
aF0.0
aF0.0
aF0.0
aF0.0
aF0.0
aF0.0
aF2.0
aF0.0
aF0.0
aF0.0
aF1.0
aF2.0
aF1.0
aF0.0
aF0.0
aF0.0
aF0.0
aF0.0
aF0.0
aF1.0
aF1.0
aF0.0
aF3.0
aF0.0
aF0.0
aF0.0
aF0.0
asS'xbpm3'
p200
(lp201
F1.0
aF1.0
aF1.0
aF1.0
aF1.0
aF1.0
aF1.0
aF84.0
aF117.0
aF160.0
aF208.0
aF252.0
aF305.0
aF382.0
aF466.0
aF569.0
aF700.0
aF1011.0
aF1295.0
aF1360.0
aF1737.0
aF2322.0
aF3303.0
aF4682.0
aF7983.0
aF12362.0
aF16711.0
aF21194.0
aF25104.0
aF26705.0
aF24865.0
aF21041.0
aF19525.0
aF11938.0
aF7573.0
aF5283.0
aF3900.0
aF3589.0
aF2928.0
aF2112.0
aF1771.0
asS'dSum'
p202
(lp203
F870.0
aF930.0
aF1046.0
aF1129.0
aF1164.0
aF1253.0
aF1663.0
aF1633.0
aF1800.0
aF2016.0
aF2236.0
aF2502.0
aF2785.0
aF3138.0
aF3576.0
aF4058.0
aF4662.0
aF6381.0
aF7698.0
aF7606.0
aF9419.0
aF11860.0
aF16078.0
aF21400.0
aF33435.0
aF51569.0
aF68426.0
aF85041.0
aF99146.0
aF105751.0
aF97962.0
aF83469.0
aF77657.0
aF48726.0
aF31833.0
aF21457.0
aF15819.0
aF14390.0
aF11648.0
aF8269.0
aF6918.0
asS'Epoch'
p204
(lp205
F949.0
aF949.0
aF950.0
aF950.0
aF951.0
aF951.0
aF952.0
aF952.0
aF953.0
aF953.0
aF954.0
aF954.0
aF955.0
aF955.0
aF956.0
aF956.0
aF957.0
aF957.0
aF958.0
aF958.0
aF959.0
aF959.0
aF960.0
aF960.0
aF961.0
aF961.0
aF962.0
aF962.0
aF963.0
aF964.0
aF964.0
aF965.0
aF965.0
aF966.0
aF966.0
aF967.0
aF967.0
aF968.0
aF968.0
aF969.0
aF969.0
asS'moth2'
p206
(lp207
F-9.1809949999999994
aF-9.1807549999999996
aF-9.1805000000000003
aF-9.1802449999999993
aF-9.1799949999999999
aF-9.1797550000000001
aF-9.1795000000000009
aF-9.1792449999999999
aF-9.1790050000000001
aF-9.1787500000000009
aF-9.1784999999999997
aF-9.1782450000000004
aF-9.1780050000000006
aF-9.1777499999999996
aF-9.1774950000000004
aF-9.1772449999999992
aF-9.1770049999999994
aF-9.1767500000000002
aF-9.1764949999999992
aF-9.1762549999999994
aF-9.1760000000000002
aF-9.1757500000000007
aF-9.1754949999999997
aF-9.1752549999999999
aF-9.1750000000000007
aF-9.1747449999999997
aF-9.1745049999999999
aF-9.1742550000000005
aF-9.1739999999999995
aF-9.1737450000000003
aF-9.1735050000000005
aF-9.1732499999999995
aF-9.1729950000000002
aF-9.1727450000000008
aF-9.1725049999999992
aF-9.17225
aF-9.1719950000000008
aF-9.1717549999999992
aF-9.1715
aF-9.1712500000000006
aF-9.1709949999999996
asS'xbpm4'
p208
(lp209
F1.0
aF1.0
aF1.0
aF1.0
aF1.0
aF1.0
aF1.0
aF1.0
aF1.0
aF1.0
aF1.0
aF1.0
aF1.0
aF1.0
aF1.0
aF1.0
aF1.0
aF1.0
aF1.0
aF23.0
aF206.0
aF353.0
aF583.0
aF913.0
aF1681.0
aF2958.0
aF4256.0
aF5621.0
aF6878.0
aF7741.0
aF7412.0
aF6350.0
aF5979.0
aF3743.0
aF2308.0
aF1449.0
aF978.0
aF827.0
aF619.0
aF405.0
aF303.0
asS'Seconds'
p210
(lp211
F0.20000000000000001
aF0.20000000000000001
aF0.20000000000000001
aF0.20000000000000001
aF0.20000000000000001
aF0.20000000000000001
aF0.20000000000000001
aF0.20000000000000001
aF0.20000000000000001
aF0.20000000000000001
aF0.20000000000000001
aF0.20000000000000001
aF0.20000000000000001
aF0.20000000000000001
aF0.20000000000000001
aF0.20000000000000001
aF0.20000000000000001
aF0.20000000000000001
aF0.20000000000000001
aF0.20000000000000001
aF0.20000000000000001
aF0.20000000000000001
aF0.20000000000000001
aF0.20000000000000001
aF0.20000000000000001
aF0.20000000000000001
aF0.20000000000000001
aF0.20000000000000001
aF0.20000000000000001
aF0.20000000000000001
aF0.20000000000000001
aF0.20000000000000001
aF0.20000000000000001
aF0.20000000000000001
aF0.20000000000000001
aF0.20000000000000001
aF0.20000000000000001
aF0.20000000000000001
aF0.20000000000000001
aF0.20000000000000001
aF0.20000000000000001
assS'counting-to'
p212
g183
sS'fourc'
p213
(lp214
(lp215
F0.0
aa(lp216
F0.0
aaNa(lp217
F0.0
aa(lp218
F0.0
aasS'columns'
p219
(lp220
g206
ag204
ag196
ag194
ag202
ag190
ag192
ag200
ag208
ag198
ag210
asS'hklstart'
p221
(lp222
sa(dp223
g130
(lp224
(lp225
I26
aS'#C Thu Feb 25 14:45:25 2010.  Scan aborted after 26 points.'
p226
aa(lp227
I26
aS'#C Thu Feb 25 14:50:38 2010.  scaty reset from -5.40812 to 0.'
p228
aasg132
(lp229
F0.0
aF5.1909999999999998
aF0.0
aF0.49999999000000001
aF0.0
aF0.29999998999999999
aF0.0
aF0.0
aF-6238.6436000000003
aF37.613748999999999
aF0.30000000999999998
aF-0.70000003
aF-0.01
aF-0.81000004000000003
aF-0.20000000000000001
aF-0.40999999999999998
aF1.0
aF0.80000000000000004
aF0.0
aF0.0
aF0.0
aF-3.0654612e-06
aF-150.72701000000001
aF-150.72975
aF-21.188548999999998
aF-9.1748049999999992
aF-9.1739499999999996
aF-1.1865000000000001
aF0.34999998999999998
aF0.14000000000000001
aF-31.824998999999998
aF-9.1735450000000007
aF-9.1704500000000007
aF12.403499999999999
aF0.0
aF-1.0134540000000001
aF0.30012499999999998
aF0.30012499999999998
aF0.30012499999999998
aF0.30012499999999998
aF0.29999999999999999
aF1.9550000000000001
aF-0.20124839
aF0.0
aF0.34734999
aF0.34734999
aF2.5627
aF1.2374449999999999
aF-0.22666
aF0.0
aF0.64000997999999998
aF0.63998997999999996
aF0.64000000000000001
aF0.0
aF39.999999000000003
aF1.1745000999999999
aF0.074500003999999995
aF0.11800001
aF-0.78200004000000001
aF0.62450000000000006
aF-0.33200000000000002
aF1.1000000000000001
aF0.90000000000000002
aF1.0000008
aF-35.798999999999999
aF11.920251
aF-0.45850000000000002
aF-5.2524999000000001
aF11.3696
aF317.0
aF1.2000192999999999
aF-0.1200905
aF1.2000192999999999
aF-0.81546920000000001
aF1.2000192999999999
aF-0.42086380000000001
aF1.2000192999999999
aF2.0071004000000001
aF120.0
aF0.0
aF0.0
aF0.0
aF1.1754176000000001
aF44.764899
aF764.63360999999998
aF15.184313
aF-1.1835
aF0.0
aF-151.32249999999999
aF0.030079999999999999
aF0.0
aF-0.028333356000000001
aF74.382099999999994
aF7220.7797
aF7.1201252999999998
aF-0.45850000000000002
aF-408.03125999999997
aF-13.234
aF1.8855
aF-2.0
aF0.0
aF0.0
aF0.0
aF-156.82875000000001
aF138.1712
aF-0.50993215999999997
aF95.000004000000004
aF0.0
aF55.999997999999998
aF-20.401875
asg134
I11
sg135
I2
sg136
S'(Seconds)'
p230
sg138
(lp231
(lp232
F5.141
aF1483.0
aF400.36059999999998
aF6625467300.0
aF14256.0
aF5855.0
aF1432.0
aF5709.0
aF1260.0
aF0.0
aF0.20000000000000001
aa(lp233
F5.1459999999999999
aF1484.0
aF400.34917000000002
aF7016098300.0
aF15026.0
aF6161.0
aF1509.0
aF6024.0
aF1332.0
aF0.0
aF0.20000000000000001
aa(lp234
F5.1509999999999998
aF1485.0
aF400.33012000000002
aF7171740300.0
aF15356.0
aF6292.0
aF1546.0
aF6151.0
aF1367.0
aF0.0
aF0.20000000000000001
aa(lp235
F5.1559999999999997
aF1486.0
aF400.31488000000002
aF7327382300.0
aF15687.0
aF6431.0
aF1584.0
aF6272.0
aF1400.0
aF0.0
aF0.20000000000000001
aa(lp236
F5.1609999999999996
aF1486.0
aF400.29964000000001
aF7504387000.0
aF16185.0
aF6679.0
aF1652.0
aF6415.0
aF1439.0
aF0.0
aF0.20000000000000001
aa(lp237
F5.1660000000000004
aF1487.0
aF400.28440000000001
aF7882810700.0
aF17192.0
aF7241.0
aF1814.0
aF6631.0
aF1506.0
aF0.0
aF0.20000000000000001
aa(lp238
F5.1710000000000003
aF1488.0
aF400.26916999999997
aF8572518500.0
aF19854.0
aF8815.0
aF2265.0
aF7111.0
aF1663.0
aF0.0
aF0.20000000000000001
aa(lp239
F5.1760000000000002
aF1489.0
aF400.25774000000001
aF10382238000.0
aF25100.0
aF12093.0
aF3225.0
aF7844.0
aF1938.0
aF1.0
aF0.20000000000000001
aa(lp240
F5.181
aF1490.0
aF400.23487999999998
aF14969100000.0
aF39629.0
aF20522.0
aF5654.0
aF10603.0
aF2850.0
aF0.0
aF0.20000000000000001
aa(lp241
F5.1859999999999999
aF1491.0
aF400.22726
aF23593500000.0
aF67952.0
aF36207.0
aF10173.0
aF16746.0
aF4826.0
aF0.0
aF0.20000000000000001
aa(lp242
F5.1909999999999998
aF1492.0
aF400.21202
aF37644007000.0
aF95995.0
aF49685.0
aF14099.0
aF24794.0
aF7417.0
aF0.0
aF0.20000000000000001
aa(lp243
F5.1959999999999997
aF1493.0
aF400.19679000000002
aF52240787000.0
aF123901.0
aF60656.0
aF17325.0
aF35280.0
aF10640.0
aF0.0
aF0.20000000000000001
aa(lp244
F5.2009999999999996
aF1494.0
aF400.17773999999997
aF60328069000.0
aF130771.0
aF57697.0
aF16547.0
aF43477.0
aF13050.0
aF0.0
aF0.20000000000000001
aa(lp245
F5.2060000000000004
aF1495.0
aF400.16631000000001
aF60755322000.0
aF120455.0
aF45568.0
aF13083.0
aF47670.0
aF14134.0
aF0.0
aF0.20000000000000001
aa(lp246
F5.2110000000000003
aF1496.0
aF400.14726000000002
aF53318074000.0
aF101360.0
aF31077.0
aF8880.0
aF47576.0
aF13827.0
aF0.0
aF0.20000000000000001
aa(lp247
F5.2160000000000002
aF1497.0
aF400.13202000000001
aF44608225000.0
aF83040.0
aF20836.0
aF5864.0
aF43889.0
aF12451.0
aF0.0
aF0.20000000000000001
aa(lp248
F5.2210000000000001
aF1498.0
aF400.12060000000002
aF37058061000.0
aF68046.0
aF15221.0
aF4169.0
aF38144.0
aF10512.0
aF0.0
aF0.20000000000000001
aa(lp249
F5.226
aF1498.0
aF400.10536000000002
aF30496681000.0
aF57718.0
aF13728.0
aF3695.0
aF31805.0
aF8490.0
aF0.0
aF0.20000000000000001
aa(lp250
F5.2309999999999999
aF1499.0
aF400.09012000000001
aF26358434000.0
aF49265.0
aF14083.0
aF3784.0
aF24931.0
aF6467.0
aF0.0
aF0.20000000000000001
aa(lp251
F5.2359999999999998
aF1500.0
aF400.07488000000001
aF24182498000.0
aF47336.0
aF16055.0
aF4337.0
aF21438.0
aF5506.0
aF0.0
aF0.20000000000000001
aa(lp252
F5.2409999999999997
aF1501.0
aF400.05964
aF23547723000.0
aF47638.0
aF18521.0
aF5039.0
aF19128.0
aF4950.0
aF0.0
aF0.20000000000000001
aa(lp253
F5.2460000000000004
aF1502.0
aF400.04820999999998
aF24148928000.0
aF50480.0
aF21040.0
aF5755.0
aF18736.0
aF4949.0
aF0.0
aF0.20000000000000001
aa(lp254
F5.2510000000000003
aF1503.0
aF400.02535999999998
aF26138705000.0
aF54610.0
aF23385.0
aF6421.0
aF19524.0
aF5280.0
aF0.0
aF0.20000000000000001
aa(lp255
F5.2560000000000002
aF1504.0
aF400.01011999999997
aF28064393000.0
aF61898.0
aF26488.0
aF7295.0
aF22058.0
aF6057.0
aF0.0
aF0.20000000000000001
aa(lp256
F5.2610000000000001
aF1505.0
aF400.32630999999998
aF30493629000.0
aF66534.0
aF28166.0
aF7771.0
aF23966.0
aF6631.0
aF0.0
aF0.20000000000000001
aa(lp257
F5.266
aF1506.0
aF400.68439999999998
aF32489509000.0
aF70843.0
aF29539.0
aF8151.0
aF25940.0
aF7213.0
aF0.0
aF0.20000000000000001
aasg181
S'ascan  idgap 5.141 5.291  30 0.2'
p258
sg183
F0.20000000000000001
sg3
g4
(S'\x07\xda\x02\x19\x0e,5\x00\x00\x00'
p259
tp260
Rp261
sg8
(lp262
sg188
(dp263
S'xbpm1'
p264
(lp265
F5855.0
aF6161.0
aF6292.0
aF6431.0
aF6679.0
aF7241.0
aF8815.0
aF12093.0
aF20522.0
aF36207.0
aF49685.0
aF60656.0
aF57697.0
aF45568.0
aF31077.0
aF20836.0
aF15221.0
aF13728.0
aF14083.0
aF16055.0
aF18521.0
aF21040.0
aF23385.0
aF26488.0
aF28166.0
aF29539.0
asS'xbpm2'
p266
(lp267
F1432.0
aF1509.0
aF1546.0
aF1584.0
aF1652.0
aF1814.0
aF2265.0
aF3225.0
aF5654.0
aF10173.0
aF14099.0
aF17325.0
aF16547.0
aF13083.0
aF8880.0
aF5864.0
aF4169.0
aF3695.0
aF3784.0
aF4337.0
aF5039.0
aF5755.0
aF6421.0
aF7295.0
aF7771.0
aF8151.0
asS'xbpmS'
p268
(lp269
F6625467300.0
aF7016098300.0
aF7171740300.0
aF7327382300.0
aF7504387000.0
aF7882810700.0
aF8572518500.0
aF10382238000.0
aF14969100000.0
aF23593500000.0
aF37644007000.0
aF52240787000.0
aF60328069000.0
aF60755322000.0
aF53318074000.0
aF44608225000.0
aF37058061000.0
aF30496681000.0
aF26358434000.0
aF24182498000.0
aF23547723000.0
aF24148928000.0
aF26138705000.0
aF28064393000.0
aF30493629000.0
aF32489509000.0
asS'curr'
p270
(lp271
F400.36059999999998
aF400.34917000000002
aF400.33012000000002
aF400.31488000000002
aF400.29964000000001
aF400.28440000000001
aF400.26916999999997
aF400.25774000000001
aF400.23487999999998
aF400.22726
aF400.21202
aF400.19679000000002
aF400.17773999999997
aF400.16631000000001
aF400.14726000000002
aF400.13202000000001
aF400.12060000000002
aF400.10536000000002
aF400.09012000000001
aF400.07488000000001
aF400.05964
aF400.04820999999998
aF400.02535999999998
aF400.01011999999997
aF400.32630999999998
aF400.68439999999998
asS'Monitor'
p272
(lp273
F0.0
aF0.0
aF0.0
aF0.0
aF0.0
aF0.0
aF0.0
aF1.0
aF0.0
aF0.0
aF0.0
aF0.0
aF0.0
aF0.0
aF0.0
aF0.0
aF0.0
aF0.0
aF0.0
aF0.0
aF0.0
aF0.0
aF0.0
aF0.0
aF0.0
aF0.0
asS'Seconds'
p274
(lp275
F0.20000000000000001
aF0.20000000000000001
aF0.20000000000000001
aF0.20000000000000001
aF0.20000000000000001
aF0.20000000000000001
aF0.20000000000000001
aF0.20000000000000001
aF0.20000000000000001
aF0.20000000000000001
aF0.20000000000000001
aF0.20000000000000001
aF0.20000000000000001
aF0.20000000000000001
aF0.20000000000000001
aF0.20000000000000001
aF0.20000000000000001
aF0.20000000000000001
aF0.20000000000000001
aF0.20000000000000001
aF0.20000000000000001
aF0.20000000000000001
aF0.20000000000000001
aF0.20000000000000001
aF0.20000000000000001
aF0.20000000000000001
asS'dSum'
p276
(lp277
F14256.0
aF15026.0
aF15356.0
aF15687.0
aF16185.0
aF17192.0
aF19854.0
aF25100.0
aF39629.0
aF67952.0
aF95995.0
aF123901.0
aF130771.0
aF120455.0
aF101360.0
aF83040.0
aF68046.0
aF57718.0
aF49265.0
aF47336.0
aF47638.0
aF50480.0
aF54610.0
aF61898.0
aF66534.0
aF70843.0
asS'Epoch'
p278
(lp279
F1483.0
aF1484.0
aF1485.0
aF1486.0
aF1486.0
aF1487.0
aF1488.0
aF1489.0
aF1490.0
aF1491.0
aF1492.0
aF1493.0
aF1494.0
aF1495.0
aF1496.0
aF1497.0
aF1498.0
aF1498.0
aF1499.0
aF1500.0
aF1501.0
aF1502.0
aF1503.0
aF1504.0
aF1505.0
aF1506.0
asS'xbpm3'
p280
(lp281
F5709.0
aF6024.0
aF6151.0
aF6272.0
aF6415.0
aF6631.0
aF7111.0
aF7844.0
aF10603.0
aF16746.0
aF24794.0
aF35280.0
aF43477.0
aF47670.0
aF47576.0
aF43889.0
aF38144.0
aF31805.0
aF24931.0
aF21438.0
aF19128.0
aF18736.0
aF19524.0
aF22058.0
aF23966.0
aF25940.0
asS'idgap'
p282
(lp283
F5.141
aF5.1459999999999999
aF5.1509999999999998
aF5.1559999999999997
aF5.1609999999999996
aF5.1660000000000004
aF5.1710000000000003
aF5.1760000000000002
aF5.181
aF5.1859999999999999
aF5.1909999999999998
aF5.1959999999999997
aF5.2009999999999996
aF5.2060000000000004
aF5.2110000000000003
aF5.2160000000000002
aF5.2210000000000001
aF5.226
aF5.2309999999999999
aF5.2359999999999998
aF5.2409999999999997
aF5.2460000000000004
aF5.2510000000000003
aF5.2560000000000002
aF5.2610000000000001
aF5.266
asS'xbpm4'
p284
(lp285
F1260.0
aF1332.0
aF1367.0
aF1400.0
aF1439.0
aF1506.0
aF1663.0
aF1938.0
aF2850.0
aF4826.0
aF7417.0
aF10640.0
aF13050.0
aF14134.0
aF13827.0
aF12451.0
aF10512.0
aF8490.0
aF6467.0
aF5506.0
aF4950.0
aF4949.0
aF5280.0
aF6057.0
aF6631.0
aF7213.0
assg212
g183
sg213
(lp286
(lp287
F0.0
aa(lp288
F0.0
aaNa(lp289
F0.0
aa(lp290
F0.0
aasg219
(lp291
g282
ag278
ag270
ag268
ag276
ag264
ag266
ag280
ag284
ag272
ag274
asg221
(lp292
sa(dp293
g130
(lp294
sg132
(lp295
F0.0
aF5.2069999999999999
aF0.0
aF0.49999999000000001
aF0.0
aF0.29999998999999999
aF0.0
aF0.0
aF-6238.6436000000003
aF37.613748999999999
aF0.30000000999999998
aF-0.70000003
aF-0.01
aF-0.81000004000000003
aF-0.20000000000000001
aF-0.40999999999999998
aF1.0
aF0.80000000000000004
aF0.0
aF0.0
aF0.0
aF-3.0654612e-06
aF-150.72701000000001
aF-150.72970000000001
aF-21.188548999999998
aF-9.1748049999999992
aF-9.1739499999999996
aF-1.1865000000000001
aF0.34999998999999998
aF0.14000000000000001
aF-31.824998999999998
aF-9.1735450000000007
aF-9.1704500000000007
aF12.403499999999999
aF0.0
aF-1.0134540000000001
aF0.30012499999999998
aF0.30012499999999998
aF0.30012499999999998
aF0.30012499999999998
aF0.29999999999999999
aF2.2200000000000002
aF-0.23999808
aF-13.00032
aF0.34734999
aF0.34734999
aF2.5627
aF1.2374449999999999
aF-0.22666
aF0.0
aF0.64000997999999998
aF0.63998997999999996
aF0.64000000000000001
aF0.0
aF39.999999000000003
aF1.1745000999999999
aF0.074500003999999995
aF0.11800001
aF-0.78200004000000001
aF0.62450000000000006
aF-0.33200000000000002
aF1.1000000000000001
aF0.90000000000000002
aF1.0000008
aF-35.798999999999999
aF11.920251
aF-0.45850000000000002
aF-5.2524999000000001
aF11.3696
aF317.0
aF1.2000192999999999
aF-0.1200905
aF1.2000192999999999
aF-0.81546920000000001
aF1.2000192999999999
aF-0.42086380000000001
aF1.2000192999999999
aF2.0071004000000001
aF0.0
aF0.0
aF0.0
aF0.0
aF1.1754176000000001
aF44.764899
aF764.63360999999998
aF15.184313
aF-1.1835
aF0.0
aF-151.32249999999999
aF0.030079999999999999
aF0.0
aF-0.028333356000000001
aF74.382099999999994
aF7220.7797
aF7.1201252999999998
aF-0.45850000000000002
aF-408.03125999999997
aF-13.234
aF1.8855
aF-2.0
aF0.0
aF0.0
aF0.0
aF-156.82875000000001
aF138.1712
aF-0.50993215999999997
aF95.000004000000004
aF0.0
aF35.999997999999998
aF0.0
asg134
I11
sg135
I3
sg136
S'(Seconds)'
p296
sg138
(lp297
(lp298
F29.999998000000001
aF1881.0
aF400.35678999999999
aF55823606000.0
aF559917.0
aF140923.0
aF142892.0
aF133724.0
aF142378.0
aF255.0
aF1.0
aa(lp299
F29.999998000000001
aF1882.0
aF400.33393000000001
aF55921263000.0
aF560821.0
aF141171.0
aF143153.0
aF133899.0
aF142598.0
aF264.0
aF1.0
aa(lp300
F29.999998000000001
aF1883.0
aF400.31869
aF55945678000.0
aF560748.0
aF141220.0
aF143221.0
aF133796.0
aF142511.0
aF252.0
aF1.0
aa(lp301
F29.999998000000001
aF1884.0
aF400.29964000000001
aF55896849000.0
aF586086.0
aF147586.0
aF149670.0
aF139870.0
aF148960.0
aF231.0
aF1.0
aa(lp302
F29.999998000000001
aF1886.0
aF400.28440000000001
aF55909056000.0
aF561447.0
aF141306.0
aF143325.0
aF134061.0
aF142755.0
aF247.0
aF1.0
aa(lp303
F29.999998000000001
aF1887.0
aF400.26916999999997
aF55945678000.0
aF561284.0
aF141252.0
aF143237.0
aF134054.0
aF142741.0
aF241.0
aF1.0
aa(lp304
F29.999998000000001
aF1888.0
aF400.25011999999998
aF55759518000.0
aF560589.0
aF141205.0
aF143163.0
aF133778.0
aF142443.0
aF248.0
aF1.0
aa(lp305
F29.999998000000001
aF1889.0
aF400.23487999999998
aF55793088000.0
aF558963.0
aF140690.0
aF142713.0
aF133447.0
aF142113.0
aF265.0
aF1.0
aa(lp306
F29.999998000000001
aF1890.0
aF400.21582999999998
aF55906004000.0
aF564991.0
aF142130.0
aF144174.0
aF134948.0
aF143739.0
aF257.0
aF1.0
aa(lp307
F29.999998000000001
aF1891.0
aF400.19679000000002
aF55835813000.0
aF564569.0
aF142008.0
aF144004.0
aF134887.0
aF143670.0
aF237.0
aF1.0
aa(lp308
F29.999998000000001
aF1892.0
aF400.18536
aF55848020000.0
aF565107.0
aF142147.0
aF144159.0
aF135004.0
aF143797.0
aF239.0
aF1.0
aa(lp309
F29.999998000000001
aF1893.0
aF400.16631000000001
aF55954833000.0
aF560523.0
aF141033.0
aF143042.0
aF133867.0
aF142581.0
aF276.0
aF1.0
aa(lp310
F29.999998000000001
aF1894.0
aF400.14726000000002
aF55924315000.0
aF565728.0
aF142424.0
aF144427.0
aF135021.0
aF143856.0
aF259.0
aF1.0
aasg181
S'ascan  scatx 30 30  12 1'
p311
sg183
F1.0
sg3
g4
(S'\x07\xda\x02\x19\x0e3 \x00\x00\x00'
p312
tp313
Rp314
sg8
(lp315
sg188
(dp316
S'xbpm1'
p317
(lp318
F140923.0
aF141171.0
aF141220.0
aF147586.0
aF141306.0
aF141252.0
aF141205.0
aF140690.0
aF142130.0
aF142008.0
aF142147.0
aF141033.0
aF142424.0
asS'xbpm2'
p319
(lp320
F142892.0
aF143153.0
aF143221.0
aF149670.0
aF143325.0
aF143237.0
aF143163.0
aF142713.0
aF144174.0
aF144004.0
aF144159.0
aF143042.0
aF144427.0
asS'xbpmS'
p321
(lp322
F55823606000.0
aF55921263000.0
aF55945678000.0
aF55896849000.0
aF55909056000.0
aF55945678000.0
aF55759518000.0
aF55793088000.0
aF55906004000.0
aF55835813000.0
aF55848020000.0
aF55954833000.0
aF55924315000.0
asS'curr'
p323
(lp324
F400.35678999999999
aF400.33393000000001
aF400.31869
aF400.29964000000001
aF400.28440000000001
aF400.26916999999997
aF400.25011999999998
aF400.23487999999998
aF400.21582999999998
aF400.19679000000002
aF400.18536
aF400.16631000000001
aF400.14726000000002
asS'Monitor'
p325
(lp326
F255.0
aF264.0
aF252.0
aF231.0
aF247.0
aF241.0
aF248.0
aF265.0
aF257.0
aF237.0
aF239.0
aF276.0
aF259.0
asS'Seconds'
p327
(lp328
F1.0
aF1.0
aF1.0
aF1.0
aF1.0
aF1.0
aF1.0
aF1.0
aF1.0
aF1.0
aF1.0
aF1.0
aF1.0
asS'dSum'
p329
(lp330
F559917.0
aF560821.0
aF560748.0
aF586086.0
aF561447.0
aF561284.0
aF560589.0
aF558963.0
aF564991.0
aF564569.0
aF565107.0
aF560523.0
aF565728.0
asS'Epoch'
p331
(lp332
F1881.0
aF1882.0
aF1883.0
aF1884.0
aF1886.0
aF1887.0
aF1888.0
aF1889.0
aF1890.0
aF1891.0
aF1892.0
aF1893.0
aF1894.0
asS'xbpm3'
p333
(lp334
F133724.0
aF133899.0
aF133796.0
aF139870.0
aF134061.0
aF134054.0
aF133778.0
aF133447.0
aF134948.0
aF134887.0
aF135004.0
aF133867.0
aF135021.0
asS'scatx'
p335
(lp336
F29.999998000000001
aF29.999998000000001
aF29.999998000000001
aF29.999998000000001
aF29.999998000000001
aF29.999998000000001
aF29.999998000000001
aF29.999998000000001
aF29.999998000000001
aF29.999998000000001
aF29.999998000000001
aF29.999998000000001
aF29.999998000000001
asS'xbpm4'
p337
(lp338
F142378.0
aF142598.0
aF142511.0
aF148960.0
aF142755.0
aF142741.0
aF142443.0
aF142113.0
aF143739.0
aF143670.0
aF143797.0
aF142581.0
aF143856.0
assg212
g183
sg213
(lp339
(lp340
F0.0
aa(lp341
F0.0
aaNa(lp342
F0.0
aa(lp343
F0.0
aasg219
(lp344
g335
ag331
ag323
ag321
ag329
ag317
ag319
ag333
ag337
ag325
ag327
asg221
(lp345
sas.